target datalayout = "e-m:e-p270:32:32-p271:32:32-p272:64:64-i64:64-i128:128-f80:128-n8:16:32:64-S128"
target triple = "x86_64-pc-linux-gnu"

%struct.gres_state = type { i32, i32, ptr, ptr, i32 }
%struct.gres_job_state = type { i32, ptr, i16, i16, i64, i64, i64, i64, i64, i16, i16, i64, i32, ptr, ptr, ptr, ptr, i32, i64, i32, ptr, ptr, ptr, ptr, ptr, ptr }

; Function Attrs: nounwind uwtable
define dso_local zeroext i1 @gres_select_util_job_tres_per_task(ptr noundef %0) #0 {
  %2 = alloca i1, align 1
  %3 = alloca ptr, align 8
  %4 = alloca ptr, align 8
  %5 = alloca ptr, align 8
  %6 = alloca ptr, align 8
  %7 = alloca i8, align 1
  %8 = alloca i32, align 4
  store ptr %0, ptr %3, align 8
  call void @llvm.lifetime.start.p0(i64 8, ptr %4) #3
  call void @llvm.lifetime.start.p0(i64 8, ptr %5) #3
  call void @llvm.lifetime.start.p0(i64 8, ptr %6) #3
  call void @llvm.lifetime.start.p0(i64 1, ptr %7) #3
  store i8 0, ptr %7, align 1
  %9 = load ptr, ptr %3, align 8
  %10 = icmp ne ptr %9, null
  br i1 %10, label %12, label %11

11:                                               ; preds = %1
  store i1 false, ptr %2, align 1
  store i32 1, ptr %8, align 4
  br label %33

12:                                               ; preds = %1
  %13 = load ptr, ptr %3, align 8
  %14 = call ptr @slurm_list_iterator_create(ptr noundef %13)
  store ptr %14, ptr %4, align 8
  br label %15

15:                                               ; preds = %28, %12
  %16 = load ptr, ptr %4, align 8
  %17 = call ptr @slurm_list_next(ptr noundef %16)
  store ptr %17, ptr %5, align 8
  %18 = icmp ne ptr %17, null
  br i1 %18, label %19, label %29

19:                                               ; preds = %15
  %20 = load ptr, ptr %5, align 8
  %21 = getelementptr inbounds nuw %struct.gres_state, ptr %20, i32 0, i32 2
  %22 = load ptr, ptr %21, align 8
  store ptr %22, ptr %6, align 8
  %23 = load ptr, ptr %6, align 8
  %24 = getelementptr inbounds nuw %struct.gres_job_state, ptr %23, i32 0, i32 7
  %25 = load i64, ptr %24, align 8
  %26 = icmp ne i64 %25, 0
  br i1 %26, label %27, label %28

27:                                               ; preds = %19
  store i8 1, ptr %7, align 1
  br label %29

28:                                               ; preds = %19
  br label %15, !llvm.loop !19

29:                                               ; preds = %27, %15
  %30 = load ptr, ptr %4, align 8
  call void @slurm_list_iterator_destroy(ptr noundef %30)
  %31 = load i8, ptr %7, align 1, !range !14, !noundef !15
  %32 = trunc i8 %31 to i1
  store i1 %32, ptr %2, align 1
  store i32 1, ptr %8, align 4
  br label %33

33:                                               ; preds = %29, %11
  call void @llvm.lifetime.end.p0(i64 1, ptr %7) #3
  call void @llvm.lifetime.end.p0(i64 8, ptr %6) #3
  call void @llvm.lifetime.end.p0(i64 8, ptr %5) #3
  call void @llvm.lifetime.end.p0(i64 8, ptr %4) #3
  %34 = load i1, ptr %2, align 1
  ret i1 %34
}