; Function Attrs: nounwind uwtable
define dso_local noundef zeroext i1 @gres_select_util_job_tres_per_task(ptr noundef %0) local_unnamed_addr #0 {
  %.not = icmp eq ptr %0, null
  br i1 %.not, label %12, label %2

2:                                                ; preds = %1
  %3 = tail call ptr @slurm_list_iterator_create(ptr noundef nonnull %0) #4
  br label %4

4:                                                ; preds = %6, %2
  %5 = tail call ptr @slurm_list_next(ptr noundef %3) #4
  %.not10.not.not.not.not.not = icmp ne ptr %5, null
  br i1 %.not10.not.not.not.not.not, label %6, label %11

6:                                                ; preds = %4
  %7 = getelementptr inbounds nuw i8, ptr %5, i64 8
  %8 = load ptr, ptr %7, align 8
  %9 = getelementptr inbounds nuw i8, ptr %8, i64 48
  %10 = load i64, ptr %9, align 8
  %.not11 = icmp eq i64 %10, 0
  br i1 %.not11, label %4, label %11, !llvm.loop !17

11:                                               ; preds = %6, %4
  tail call void @slurm_list_iterator_destroy(ptr noundef %3) #4
  br label %12

12:                                               ; preds = %1, %11
  %.07 = phi i1 [ %.not10.not.not.not.not.not, %11 ], [ false, %1 ]
  ret i1 %.07
}